target datalayout = "e-m:e-p270:32:32-p271:32:32-p272:64:64-i64:64-i128:128-f80:128-n8:16:32:64-S128"
target triple = "x86_64-pc-linux-gnu"

%struct.reassembly_table = type { ptr, ptr, ptr, ptr, ptr }
%struct.reassembly_table_functions = type { ptr, ptr, ptr, ptr, ptr, ptr }

@selfm_reassembly_table = internal global %struct.reassembly_table zeroinitializer, align 8
@addresses_reassembly_table_functions = external constant %struct.reassembly_table_functions, align 8
@.str.307 = private unnamed_addr constant [13 x i8] c"SEL Protocol\00", align 1
@.str.308 = private unnamed_addr constant [6 x i8] c"selfm\00", align 1
@proto_selfm = internal global i32 0, align 4
@selfm_handle = internal global ptr null, align 8
@.str.309 = private unnamed_addr constant [10 x i8] c"desegment\00", align 1
@.str.310 = private unnamed_addr constant [49 x i8] c"Desegment packets spanning multiple TCP segments\00", align 1
@.str.311 = private unnamed_addr constant [96 x i8] c"Whether the SEL Protocol dissector should desegment all messages spanning multiple TCP segments\00", align 1
@selfm_desegment = internal global i8 1, align 1
@.str.312 = private unnamed_addr constant [12 x i8] c"telnetclean\00", align 1
@.str.313 = private unnamed_addr constant [37 x i8] c"Remove extra 0xFF (Telnet IAC) bytes\00", align 1
@.str.314 = private unnamed_addr constant [115 x i8] c"Whether the SEL Protocol dissector should automatically pre-process Telnet data to remove duplicate 0xFF IAC bytes\00", align 1
@selfm_telnet_clean = internal global i8 1, align 1
@.str.315 = private unnamed_addr constant [17 x i8] c"crc_verification\00", align 1
@.str.316 = private unnamed_addr constant [28 x i8] c"Validate Fast Message CRC16\00", align 1
@.str.317 = private unnamed_addr constant [42 x i8] c"Perform CRC16 validation on Fast Messages\00", align 1
@selfm_crc16 = internal global i8 0, align 1
@.str.318 = private unnamed_addr constant [9 x i8] c"ser_list\00", align 1
@.str.319 = private unnamed_addr constant [15 x i8] c"SER Index List\00", align 1
@.str.320 = private unnamed_addr constant [87 x i8] c"List of word bits contained in SER equations (Comma-separated, no Quotes or Checksums)\00", align 1
@selfm_ser_list = internal global ptr null, align 8

; Function Attrs: null_pointer_is_valid sspstrong uwtable
define hidden void @proto_register_selfm() #0 {
  %1 = alloca ptr, align 8
  %2 = alloca ptr, align 8
  call void @llvm.lifetime.start.p0(i64 8, ptr %1) #6
  call void @llvm.lifetime.start.p0(i64 8, ptr %2) #6
  call void @reassembly_table_register(ptr noundef @selfm_reassembly_table, ptr noundef @addresses_reassembly_table_functions)
  %3 = call i32 @proto_register_protocol(ptr noundef @.str.307, ptr noundef @.str.307, ptr noundef @.str.308)
  store i32 %3, ptr @proto_selfm, align 4
  %4 = load i32, ptr @proto_selfm, align 4
  %5 = call ptr @register_dissector(ptr noundef @.str.308, ptr noundef @dissect_selfm_tcp, i32 noundef %4)
  store ptr %5, ptr @selfm_handle, align 8
  %6 = load i32, ptr @proto_selfm, align 4
  call void @proto_register_field_array(i32 noundef %6, ptr noundef @proto_register_selfm.selfm_hf, i32 noundef 156)
  call void @proto_register_subtree_array(ptr noundef @proto_register_selfm.ett, i32 noundef 27)
  %7 = load i32, ptr @proto_selfm, align 4
  %8 = call ptr @expert_register_protocol(i32 noundef %7)
  store ptr %8, ptr %2, align 8
  %9 = load ptr, ptr %2, align 8
  call void @expert_register_field_array(ptr noundef %9, ptr noundef @proto_register_selfm.selfm_ei, i32 noundef 1)
  %10 = load i32, ptr @proto_selfm, align 4
  %11 = call ptr @prefs_register_protocol(i32 noundef %10, ptr noundef null)
  store ptr %11, ptr %1, align 8
  %12 = load ptr, ptr %1, align 8
  call void @prefs_register_bool_preference(ptr noundef %12, ptr noundef @.str.309, ptr noundef @.str.310, ptr noundef @.str.311, ptr noundef @selfm_desegment)
  %13 = load ptr, ptr %1, align 8
  call void @prefs_register_bool_preference(ptr noundef %13, ptr noundef @.str.312, ptr noundef @.str.313, ptr noundef @.str.314, ptr noundef @selfm_telnet_clean)
  %14 = load ptr, ptr %1, align 8
  call void @prefs_register_bool_preference(ptr noundef %14, ptr noundef @.str.315, ptr noundef @.str.316, ptr noundef @.str.317, ptr noundef @selfm_crc16)
  %15 = load ptr, ptr %1, align 8
  call void @prefs_register_string_preference(ptr noundef %15, ptr noundef @.str.318, ptr noundef @.str.319, ptr noundef @.str.320, ptr noundef @selfm_ser_list)
  call void @llvm.lifetime.end.p0(i64 8, ptr %2) #6
  call void @llvm.lifetime.end.p0(i64 8, ptr %1) #6
  ret void
}