; Function Attrs: null_pointer_is_valid sspstrong uwtable
define hidden void @proto_register_selfm() local_unnamed_addr #0 {
  tail call void @reassembly_table_register(ptr noundef nonnull @selfm_reassembly_table, ptr noundef nonnull @addresses_reassembly_table_functions)
  %1 = tail call i32 @proto_register_protocol(ptr noundef nonnull @.str.307, ptr noundef nonnull @.str.307, ptr noundef nonnull @.str.308)
  store i32 %1, ptr @proto_selfm, align 4
  %2 = tail call ptr @register_dissector(ptr noundef nonnull @.str.308, ptr noundef nonnull @dissect_selfm_tcp, i32 noundef %1)
  store ptr %2, ptr @selfm_handle, align 8
  %3 = load i32, ptr @proto_selfm, align 4
  tail call void @proto_register_field_array(i32 noundef %3, ptr noundef nonnull @proto_register_selfm.selfm_hf, i32 noundef 156)
  tail call void @proto_register_subtree_array(ptr noundef nonnull @proto_register_selfm.ett, i32 noundef 27)
  %4 = load i32, ptr @proto_selfm, align 4
  %5 = tail call ptr @expert_register_protocol(i32 noundef %4)
  tail call void @expert_register_field_array(ptr noundef %5, ptr noundef nonnull @proto_register_selfm.selfm_ei, i32 noundef 1)
  %6 = load i32, ptr @proto_selfm, align 4
  %7 = tail call ptr @prefs_register_protocol(i32 noundef %6, ptr noundef null)
  tail call void @prefs_register_bool_preference(ptr noundef %7, ptr noundef nonnull @.str.309, ptr noundef nonnull @.str.310, ptr noundef nonnull @.str.311, ptr noundef nonnull @selfm_desegment)
  tail call void @prefs_register_bool_preference(ptr noundef %7, ptr noundef nonnull @.str.312, ptr noundef nonnull @.str.313, ptr noundef nonnull @.str.314, ptr noundef nonnull @selfm_telnet_clean)
  tail call void @prefs_register_bool_preference(ptr noundef %7, ptr noundef nonnull @.str.315, ptr noundef nonnull @.str.316, ptr noundef nonnull @.str.317, ptr noundef nonnull @selfm_crc16)
  tail call void @prefs_register_string_preference(ptr noundef %7, ptr noundef nonnull @.str.318, ptr noundef nonnull @.str.319, ptr noundef nonnull @.str.320, ptr noundef nonnull @selfm_ser_list)
  ret void
}